target datalayout = "e-m:e-p270:32:32-p271:32:32-p272:64:64-i64:64-i128:128-f80:128-n8:16:32:64-S128"
target triple = "x86_64-pc-linux-gnu"

; Function Attrs: inlinehint nounwind uwtable
define internal i32 @CompareWords(i64 noundef %0, i64 noundef %1) #5 {
  %3 = alloca i32, align 4
  %4 = alloca i64, align 8
  %5 = alloca i64, align 8
  store i64 %0, ptr %4, align 8, !tbaa !18
  store i64 %1, ptr %5, align 8, !tbaa !18
  %6 = load i64, ptr %4, align 8, !tbaa !18
  %7 = load i64, ptr %5, align 8, !tbaa !18
  %8 = icmp ugt i64 %6, %7
  br i1 %8, label %9, label %10

9:                                                ; preds = %2
  store i32 1, ptr %3, align 4
  br label %16

10:                                               ; preds = %2
  %11 = load i64, ptr %4, align 8, !tbaa !18
  %12 = load i64, ptr %5, align 8, !tbaa !18
  %13 = icmp ult i64 %11, %12
  br i1 %13, label %14, label %15

14:                                               ; preds = %10
  store i32 -1, ptr %3, align 4
  br label %16

15:                                               ; preds = %10
  store i32 0, ptr %3, align 4
  br label %16

16:                                               ; preds = %15, %14, %9
  %17 = load i32, ptr %3, align 4
  ret i32 %17
}

; Function Attrs: nounwind uwtable
define i32 @minTemp2_fast_moreThen5(ptr noundef %0, i32 noundef %1, i32 noundef %2, i32 noundef %3, i32 noundef %4, ptr noundef %5) #0 {
  %7 = alloca i32, align 4
  %8 = alloca ptr, align 8
  %9 = alloca i32, align 4
  %10 = alloca i32, align 4
  %11 = alloca i32, align 4
  %12 = alloca i32, align 4
  %13 = alloca ptr, align 8
  %14 = alloca i32, align 4
  %15 = alloca i32, align 4
  %16 = alloca i32, align 4
  %17 = alloca i32, align 4
  %18 = alloca i32, align 4
  %19 = alloca i32, align 4
  store ptr %0, ptr %8, align 8, !tbaa !3
  store i32 %1, ptr %9, align 4, !tbaa !8
  store i32 %2, ptr %10, align 4, !tbaa !8
  store i32 %3, ptr %11, align 4, !tbaa !8
  store i32 %4, ptr %12, align 4, !tbaa !8
  store ptr %5, ptr %13, align 8, !tbaa !12
  call void @llvm.lifetime.start.p0(i64 4, ptr %14) #7
  call void @llvm.lifetime.start.p0(i64 4, ptr %15) #7
  call void @llvm.lifetime.start.p0(i64 4, ptr %16) #7
  call void @llvm.lifetime.start.p0(i64 4, ptr %17) #7
  %20 = load i32, ptr %9, align 4, !tbaa !8
  %21 = sub nsw i32 %20, 6
  %22 = shl i32 1, %21
  store i32 %22, ptr %17, align 4, !tbaa !8
  call void @llvm.lifetime.start.p0(i64 4, ptr %18) #7
  %23 = load i32, ptr %17, align 4, !tbaa !8
  %24 = mul nsw i32 %23, 4
  store i32 %24, ptr %18, align 4, !tbaa !8
  %25 = load i32, ptr %12, align 4, !tbaa !8
  %26 = sub nsw i32 %25, 1
  store i32 %26, ptr %14, align 4, !tbaa !8
  br label %27

27:                                               ; preds = %77, %6
  %28 = load i32, ptr %14, align 4, !tbaa !8
  %29 = icmp sge i32 %28, 0
  br i1 %29, label %30, label %81

30:                                               ; preds = %27
  store i32 0, ptr %15, align 4, !tbaa !8
  br label %31

31:                                               ; preds = %73, %30
  %32 = load i32, ptr %15, align 4, !tbaa !8
  %33 = load i32, ptr %17, align 4, !tbaa !8
  %34 = icmp slt i32 %32, %33
  br i1 %34, label %35, label %76

35:                                               ; preds = %31
  %36 = load ptr, ptr %8, align 8, !tbaa !3
  %37 = load i32, ptr %14, align 4, !tbaa !8
  %38 = load i32, ptr %15, align 4, !tbaa !8
  %39 = sub nsw i32 %37, %38
  %40 = load i32, ptr %10, align 4, !tbaa !8
  %41 = load i32, ptr %17, align 4, !tbaa !8
  %42 = mul nsw i32 %40, %41
  %43 = sub nsw i32 %39, %42
  %44 = sext i32 %43 to i64
  %45 = getelementptr inbounds i64, ptr %36, i64 %44
  %46 = load i64, ptr %45, align 8, !tbaa !18
  %47 = load ptr, ptr %8, align 8, !tbaa !3
  %48 = load i32, ptr %14, align 4, !tbaa !8
  %49 = load i32, ptr %15, align 4, !tbaa !8
  %50 = sub nsw i32 %48, %49
  %51 = load i32, ptr %11, align 4, !tbaa !8
  %52 = load i32, ptr %17, align 4, !tbaa !8
  %53 = mul nsw i32 %51, %52
  %54 = sub nsw i32 %50, %53
  %55 = sext i32 %54 to i64
  %56 = getelementptr inbounds i64, ptr %47, i64 %55
  %57 = load i64, ptr %56, align 8, !tbaa !18
  %58 = call i32 @CompareWords(i64 noundef %46, i64 noundef %57)
  store i32 %58, ptr %16, align 4, !tbaa !8
  %59 = load i32, ptr %16, align 4, !tbaa !8
  %60 = icmp eq i32 %59, 0
  br i1 %60, label %61, label %62

61:                                               ; preds = %35
  br label %73

62:                                               ; preds = %35
  %63 = load i32, ptr %16, align 4, !tbaa !8
  %64 = icmp eq i32 %63, -1
  br i1 %64, label %65, label %69

65:                                               ; preds = %62
  %66 = load i32, ptr %14, align 4, !tbaa !8
  %67 = add nsw i32 %66, 1
  %68 = load ptr, ptr %13, align 8, !tbaa !12
  store i32 %67, ptr %68, align 4, !tbaa !8
  store i32 0, ptr %7, align 4
  store i32 1, ptr %19, align 4
  br label %83

69:                                               ; preds = %62
  %70 = load i32, ptr %14, align 4, !tbaa !8
  %71 = add nsw i32 %70, 1
  %72 = load ptr, ptr %13, align 8, !tbaa !12
  store i32 %71, ptr %72, align 4, !tbaa !8
  store i32 1, ptr %7, align 4
  store i32 1, ptr %19, align 4
  br label %83

73:                                               ; preds = %61
  %74 = load i32, ptr %15, align 4, !tbaa !8
  %75 = add nsw i32 %74, 1
  store i32 %75, ptr %15, align 4, !tbaa !8
  br label %31, !llvm.loop !35

76:                                               ; preds = %31
  br label %77

77:                                               ; preds = %76
  %78 = load i32, ptr %18, align 4, !tbaa !8
  %79 = load i32, ptr %14, align 4, !tbaa !8
  %80 = sub nsw i32 %79, %78
  store i32 %80, ptr %14, align 4, !tbaa !8
  br label %27, !llvm.loop !36

81:                                               ; preds = %27
  %82 = load ptr, ptr %13, align 8, !tbaa !12
  store i32 0, ptr %82, align 4, !tbaa !8
  store i32 0, ptr %7, align 4
  store i32 1, ptr %19, align 4
  br label %83

83:                                               ; preds = %81, %69, %65
  call void @llvm.lifetime.end.p0(i64 4, ptr %18) #7
  call void @llvm.lifetime.end.p0(i64 4, ptr %17) #7
  call void @llvm.lifetime.end.p0(i64 4, ptr %16) #7
  call void @llvm.lifetime.end.p0(i64 4, ptr %15) #7
  call void @llvm.lifetime.end.p0(i64 4, ptr %14) #7
  %84 = load i32, ptr %7, align 4
  ret i32 %84
}