; Function Attrs: nofree norecurse nosync nounwind memory(argmem: readwrite) uwtable
define range(i32 0, 2) i32 @minTemp2_fast_moreThen5(ptr noundef readonly captures(none) %0, i32 noundef %1, i32 noundef %2, i32 noundef %3, i32 noundef %4, ptr noundef writeonly captures(none) %5) local_unnamed_addr #5 {
  %7 = add nsw i32 %1, -6
  %.neg = shl i32 -4, %7
  %8 = icmp slt i32 %4, 1
  %.not = icmp eq i32 %7, 31
  %or.cond = select i1 %8, i1 true, i1 %.not
  br i1 %or.cond, label %._crit_edge34, label %.preheader.us.preheader

.preheader.us.preheader:                          ; preds = %6
  %9 = shl nuw i32 1, %7
  %10 = shl i32 %3, %7
  %11 = shl i32 %2, %7
  %12 = add nsw i32 %4, -1
  %13 = sext i32 %11 to i64
  %14 = sext i32 %10 to i64
  %smax = tail call i32 @llvm.smax.i32(i32 %9, i32 1)
  %wide.trip.count = zext nneg i32 %smax to i64
  br label %.preheader.us

.preheader.us:                                    ; preds = %.preheader.us.preheader, %._crit_edge.us
  %.02633.us = phi i32 [ %25, %._crit_edge.us ], [ %12, %.preheader.us.preheader ]
  %15 = zext nneg i32 %.02633.us to i64
  br label %16

16:                                               ; preds = %.preheader.us, %24
  %indvars.iv = phi i64 [ 0, %.preheader.us ], [ %indvars.iv.next, %24 ]
  %17 = sub nsw i64 %15, %indvars.iv
  %18 = sub nsw i64 %17, %13
  %19 = getelementptr inbounds i64, ptr %0, i64 %18
  %20 = load i64, ptr %19, align 8, !tbaa !11
  %21 = sub nsw i64 %17, %14
  %22 = getelementptr inbounds i64, ptr %0, i64 %21
  %23 = load i64, ptr %22, align 8, !tbaa !11
  %.0.i.us = tail call range(i32 -1, 2) i32 @llvm.ucmp.i32.i64(i64 %20, i64 %23)
  switch i32 %.0.i.us, label %.split.us [
    i32 0, label %24
    i32 -1, label %.split36.us
  ]

24:                                               ; preds = %16
  %indvars.iv.next = add nuw nsw i64 %indvars.iv, 1
  %exitcond.not = icmp eq i64 %indvars.iv.next, %wide.trip.count
  br i1 %exitcond.not, label %._crit_edge.us, label %16, !llvm.loop !28

._crit_edge.us:                                   ; preds = %24
  %25 = add i32 %.02633.us, %.neg
  %26 = icmp sgt i32 %25, -1
  br i1 %26, label %.preheader.us, label %._crit_edge34, !llvm.loop !29

.split36.us:                                      ; preds = %16
  %27 = add nuw nsw i32 %.02633.us, 1
  br label %._crit_edge34

.split.us:                                        ; preds = %16
  %28 = add nuw nsw i32 %.02633.us, 1
  br label %._crit_edge34

._crit_edge34:                                    ; preds = %._crit_edge.us, %6, %.split.us, %.split36.us
  %.sink = phi i32 [ %28, %.split.us ], [ %27, %.split36.us ], [ 0, %6 ], [ 0, %._crit_edge.us ]
  %.0 = phi i32 [ 1, %.split.us ], [ 0, %.split36.us ], [ 0, %6 ], [ 0, %._crit_edge.us ]
  store i32 %.sink, ptr %5, align 4, !tbaa !6
  ret i32 %.0
}